(lp0
ccopy_reg
_reconstructor
p1
(ctwitter
Status
p2
c__builtin__
object
p3
Ntp4
Rp5
(dp6
S'_favorite_count'
p7
I7
sS'_location'
p8
NsS'_withheld_scope'
p9
NsS'_in_reply_to_user_id'
p10
NsS'_truncated'
p11
I00
sS'_retweeted_status'
p12
NsS'_source'
p13
V<a href="http://twitter.com/download/iphone" rel="nofollow">Twitter for iPhone</a>
p14
sS'media'
p15
(lp16
sS'_place'
p17
(dp18
Vfull_name
p19
VMontana, USA
p20
sVurl
p21
Vhttps://api.twitter.com/1.1/geo/id/d2ddff69682ae534.json
p22
sVcountry
p23
VUnited States
p24
sVplace_type
p25
Vadmin
p26
sVbounding_box
p27
(dp28
Vtype
p29
VPolygon
p30
sVcoordinates
p31
(lp32
(lp33
(lp34
F-116.050004
aF44.35821
aa(lp35
F-104.039563
aF44.35821
aa(lp36
F-104.039563
aF49.00139
aa(lp37
F-116.050004
aF49.00139
aaassVcontained_within
p38
(lp39
sVcountry_code
p40
VUS
p41
sVattributes
p42
(dp43
sVid
p44
Vd2ddff69682ae534
p45
sVname
p46
VMontana
p47
ssS'_contributors'
p48
NsS'_current_user_retweet'
p49
NsS'_created_at'
p50
VSun Mar 22 00:19:35 +0000 2015
p51
sS'_scopes'
p52
NsS'_possibly_sensitive'
p53
NsS'_in_reply_to_screen_name'
p54
NsS'_coordinates'
p55
(dp56
Vtype
p57
VPoint
p58
sVcoordinates
p59
(lp60
F-111.20721524
aF45.55346189
assS'hashtags'
p61
(lp62
sS'_geo'
p63
(dp64
Vtype
p65
VPoint
p66
sVcoordinates
p67
(lp68
F45.55346189
aF-111.20721524
assS'_favorited'
p69
I00
sS'_withheld_in_countries'
p70
NsS'user_mentions'
p71
(lp72
sS'_retweet_count'
p73
I0
sS'_in_reply_to_status_id'
p74
NsS'_text'
p75
VI love the smell right before a rain storm!
p76
sS'_retweeted'
p77
I00
sS'lang'
p78
Ven
p79
sS'_user'
p80
g1
(ctwitter
User
p81
g3
Ntp82
Rp83
(dp84
g8
V
p85
sS'_profile_text_color'
p86
V333333
p87
sS'_lang'
p88
Ven
p89
sS'_time_zone'
p90
NsS'_followers_count'
p91
I238
sS'_statuses_count'
p92
I114
sg50
VSun Nov 16 02:48:15 +0000 2014
p93
sS'_verified'
p94
I00
sS'_description'
p95
VBad Bitches Is The Only Thing That I Like!
p96
sS'_profile_image_url'
p97
Vhttps://pbs.twimg.com/profile_images/533814533102780417/9ahQjOtK_normal.jpeg
p98
sS'_friends_count'
p99
I315
sS'_favourites_count'
p100
I763
sS'_utc_offset'
p101
NsS'_status'
p102
NsS'_protected'
p103
I00
sS'_notifications'
p104
I00
sS'_profile_background_tile'
p105
I00
sS'_profile_link_color'
p106
V0084B4
p107
sS'_geo_enabled'
p108
I01
sS'_contributors_enabled'
p109
I00
sS'_profile_background_image_url'
p110
Vhttp://abs.twimg.com/images/themes/theme1/bg.png
p111
sS'_screen_name'
p112
VDennyBearcat
p113
sS'_listed_count'
p114
I0
sS'_name'
p115
VDavid Denny
p116
sS'_profile_sidebar_fill_color'
p117
VDDEEF6
p118
sS'_url'
p119
NsS'_id'
p120
I2901078746
sS'_profile_background_color'
p121
VC0DEED
p122
sbsS'_now'
p123
NsS'_withheld_copyright'
p124
NsS'urls'
p125
(lp126
sg120
I579437228704677888
sbag1
(g2
g3
Ntp127
Rp128
(dp129
g7
I0
sg8
Nsg9
Nsg10
Nsg11
I00
sg12
Nsg13
V<a href="http://instagram.com" rel="nofollow">Instagram</a>
p130
sg15
(lp131
sg17
(dp132
Vfull_name
p133
VMontana, USA
p134
sVurl
p135
Vhttps://api.twitter.com/1.1/geo/id/d2ddff69682ae534.json
p136
sVcountry
p137
VUnited States
p138
sVplace_type
p139
Vadmin
p140
sVbounding_box
p141
(dp142
Vtype
p143
VPolygon
p144
sVcoordinates
p145
(lp146
(lp147
(lp148
F-116.050004
aF44.35821
aa(lp149
F-104.039563
aF44.35821
aa(lp150
F-104.039563
aF49.00139
aa(lp151
F-116.050004
aF49.00139
aaassVcontained_within
p152
(lp153
sVcountry_code
p154
VUS
p155
sVattributes
p156
(dp157
sVid
p158
Vd2ddff69682ae534
p159
sVname
p160
VMontana
p161
ssg48
Nsg49
Nsg50
VSat Mar 21 19:31:05 +0000 2015
p162
sg52
Nsg53
I00
sg54
Nsg55
(dp163
Vtype
p164
VPoint
p165
sVcoordinates
p166
(lp167
F-111.40077209
aF45.28625916
assg61
(lp168
g1
(ctwitter
Hashtag
p169
g3
Ntp170
Rp171
(dp172
S'text'
p173
Vthinksnow
p174
sbag1
(g169
g3
Ntp175
Rp176
(dp177
g173
Vsnowchat
p178
sbag1
(g169
g3
Ntp179
Rp180
(dp181
g173
Vsnowmamas
p182
sbag1
(g169
g3
Ntp183
Rp184
(dp185
g173
Vski
p186
sbag1
(g169
g3
Ntp187
Rp188
(dp189
g173
Vskiing
p190
sbasg63
(dp191
Vtype
p192
VPoint
p193
sVcoordinates
p194
(lp195
F45.28625916
aF-111.40077209
assg69
I00
sg70
Nsg71
(lp196
g1
(g81
g3
Ntp197
Rp198
(dp199
g8
Nsg86
Nsg88
Nsg90
Nsg91
Nsg92
Nsg50
Nsg94
Nsg95
Nsg97
Nsg99
Nsg100
Nsg101
Nsg102
Nsg103
Nsg104
Nsg105
Nsg106
Nsg108
Nsg109
Nsg110
Nsg112
Vbigskyresort
p200
sg114
Nsg115
VBig Sky Resort
p201
sg117
Nsg119
Nsg120
I30121042
sg121
Nsbasg73
I1
sg74
Nsg75
VStorm clouds brewing in the distance @bigskyresort . #thinksnow #snowchat #snowmamas #ski #skiing @\u2026 https://t.co/oNzSQrJNFX
p202
sg77
I00
sg78
Ven
p203
sg80
g1
(g81
g3
Ntp204
Rp205
(dp206
g8
VPark City, UT
p207
sg86
V141211
p208
sg88
Ven
p209
sg90
VQuito
p210
sg91
I2522
sg92
I10287
sg50
VTue Apr 14 19:31:02 +0000 2009
p211
sg94
I00
sg95
VCommunity Manager @Snowmamas | Mom of 4 | Ski | Freelance Social Media + Blogger | Park City, UT via CT, NJ, & Toronto, Canada | Where to next?
p212
sg97
Vhttps://pbs.twimg.com/profile_images/1550828571/302474_2001083342909_1118332592_31722420_1228873205_n_normal.jpg
p213
sg99
I2001
sg100
I6830
sg101
I-18000
sg102
Nsg103
I00
sg104
I00
sg105
I01
sg106
V5F1266
p214
sg108
I01
sg109
I00
sg110
Vhttp://pbs.twimg.com/profile_background_images/333082936/226626_1015576585856_1118332592_30049054_8360_n-1.jpg
p215
sg112
VKristenSkiMom
p216
sg114
I77
sg115
VKristen Fox Haaijer
p217
sg117
V95BDC9
p218
sg119
Vhttp://t.co/3xGbP5MIBj
p219
sg120
I31203127
sg121
V263F75
p220
sbsg123
Nsg124
Nsg125
(lp221
g1
(ctwitter
Url
p222
g3
Ntp223
Rp224
(dp225
S'url'
p226
Vhttps://t.co/oNzSQrJNFX
p227
sS'expanded_url'
p228
Vhttps://instagram.com/p/0gGZHLHeYq/
p229
sbasg120
I579364625482977281
sba.