(lp0
ccopy_reg
_reconstructor
p1
(ctwitter
Status
p2
c__builtin__
object
p3
Ntp4
Rp5
(dp6
S'_favorite_count'
p7
I3
sS'_location'
p8
NsS'_withheld_scope'
p9
NsS'_in_reply_to_user_id'
p10
NsS'_truncated'
p11
I00
sS'_retweeted_status'
p12
NsS'_source'
p13
V<a href="http://instagram.com" rel="nofollow">Instagram</a>
p14
sS'media'
p15
(lp16
sS'_place'
p17
(dp18
Vfull_name
p19
VNashville, TN
p20
sVurl
p21
Vhttps://api.twitter.com/1.1/geo/id/00ab941b685334e3.json
p22
sVcountry
p23
VUnited States
p24
sVplace_type
p25
Vcity
p26
sVbounding_box
p27
(dp28
Vtype
p29
VPolygon
p30
sVcoordinates
p31
(lp32
(lp33
(lp34
F-87.022482
aF35.99451
aa(lp35
F-86.560616
aF35.99451
aa(lp36
F-86.560616
aF36.405448
aa(lp37
F-87.022482
aF36.405448
aaassVcontained_within
p38
(lp39
sVcountry_code
p40
VUS
p41
sVattributes
p42
(dp43
sVid
p44
V00ab941b685334e3
p45
sVname
p46
VNashville
p47
ssS'_contributors'
p48
NsS'_current_user_retweet'
p49
NsS'_created_at'
p50
VTue Mar 24 01:21:57 +0000 2015
p51
sS'_scopes'
p52
NsS'_possibly_sensitive'
p53
I00
sS'_in_reply_to_screen_name'
p54
NsS'_coordinates'
p55
(dp56
Vtype
p57
VPoint
p58
sVcoordinates
p59
(lp60
F-86.775932
aF36.153258
assS'hashtags'
p61
(lp62
sS'_geo'
p63
(dp64
Vtype
p65
VPoint
p66
sVcoordinates
p67
(lp68
F36.153258
aF-86.775932
assS'_favorited'
p69
I00
sS'_withheld_in_countries'
p70
NsS'user_mentions'
p71
(lp72
g1
(ctwitter
User
p73
g3
Ntp74
Rp75
(dp76
g8
NsS'_profile_text_color'
p77
NsS'_lang'
p78
NsS'_time_zone'
p79
NsS'_followers_count'
p80
NsS'_statuses_count'
p81
Nsg50
NsS'_verified'
p82
NsS'_description'
p83
NsS'_profile_image_url'
p84
NsS'_friends_count'
p85
NsS'_favourites_count'
p86
NsS'_utc_offset'
p87
NsS'_status'
p88
NsS'_protected'
p89
NsS'_notifications'
p90
NsS'_profile_background_tile'
p91
NsS'_profile_link_color'
p92
NsS'_geo_enabled'
p93
NsS'_contributors_enabled'
p94
NsS'_profile_background_image_url'
p95
NsS'_screen_name'
p96
VStormof69
p97
sS'_listed_count'
p98
NsS'_name'
p99
VStorm Large
p100
sS'_profile_sidebar_fill_color'
p101
NsS'_url'
p102
NsS'_id'
p103
I179040242
sS'_profile_background_color'
p104
Nsbag1
(g73
g3
Ntp105
Rp106
(dp107
g8
Nsg77
Nsg78
Nsg79
Nsg80
Nsg81
Nsg50
Nsg82
Nsg83
Nsg84
Nsg85
Nsg86
Nsg87
Nsg88
Nsg89
Nsg90
Nsg91
Nsg92
Nsg93
Nsg94
Nsg95
Nsg96
VCityWineryNSH
p108
sg98
Nsg99
VCityWineryNSH
p109
sg101
Nsg102
Nsg103
I1630581043
sg104
NsbasS'_retweet_count'
p110
I1
sS'_in_reply_to_status_id'
p111
NsS'_text'
p112
VThe raunchy, the beautiful, the amazing Storm Large (@Stormof69) at @citywinerynsh @ City Winery\u2026 https://t.co/Oj8m0jmC1i
p113
sS'_retweeted'
p114
I00
sS'lang'
p115
Ven
p116
sS'_user'
p117
g1
(g73
g3
Ntp118
Rp119
(dp120
g8
VNashville, TN
p121
sg77
V333333
p122
sg78
Ven
p123
sg79
Nsg80
I3031
sg81
I4319
sg50
VFri Jun 29 18:55:10 +0000 2012
p124
sg82
I00
sg83
VWhat to do in Nashville. Your night out now has a roadmap.
p125
sg84
Vhttps://pbs.twimg.com/profile_images/559911949056884736/lbUwvkkx_normal.jpeg
p126
sg85
I1740
sg86
I286
sg87
Nsg88
Nsg89
I00
sg90
I00
sg91
I01
sg92
V78D7FA
p127
sg93
I01
sg94
I00
sg95
Vhttp://pbs.twimg.com/profile_background_images/675408414/51dada47f47e84720481272a11c4ff26.jpeg
p128
sg96
VDo615Nashville
p129
sg98
I60
sg99
VDo615
p130
sg101
VDDEEF6
p131
sg102
Vhttp://t.co/94OgH92h3E
p132
sg103
I622152166
sg104
V050505
p133
sbsS'_now'
p134
NsS'_withheld_copyright'
p135
NsS'urls'
p136
(lp137
g1
(ctwitter
Url
p138
g3
Ntp139
Rp140
(dp141
S'url'
p142
Vhttps://t.co/Oj8m0jmC1i
p143
sS'expanded_url'
p144
Vhttps://instagram.com/p/0l4IuFANJx/
p145
sbasg103
I580177699655815168
sbag1
(g2
g3
Ntp146
Rp147
(dp148
g7
I0
sg8
Nsg9
Nsg10
I436301115
sg11
I00
sg12
Nsg13
V<a href="http://twitter.com/download/iphone" rel="nofollow">Twitter for iPhone</a>
p149
sg15
(lp150
sg17
(dp151
Vfull_name
p152
VNashville, TN
p153
sVurl
p154
Vhttps://api.twitter.com/1.1/geo/id/00ab941b685334e3.json
p155
sVcountry
p156
VUnited States
p157
sVplace_type
p158
Vcity
p159
sVbounding_box
p160
(dp161
Vtype
p162
VPolygon
p163
sVcoordinates
p164
(lp165
(lp166
(lp167
F-87.022482
aF35.99451
aa(lp168
F-86.560616
aF35.99451
aa(lp169
F-86.560616
aF36.405448
aa(lp170
F-87.022482
aF36.405448
aaassVcontained_within
p171
(lp172
sVcountry_code
p173
VUS
p174
sVattributes
p175
(dp176
sVid
p177
V00ab941b685334e3
p178
sVname
p179
VNashville
p180
ssg48
Nsg49
Nsg50
VMon Mar 23 03:21:33 +0000 2015
p181
sg52
Nsg53
Nsg54
VChuckChase1
p182
sg55
(dp183
Vtype
p184
VPoint
p185
sVcoordinates
p186
(lp187
F-86.79693031
aF36.15282677
assg61
(lp188
sg63
(dp189
Vtype
p190
VPoint
p191
sVcoordinates
p192
(lp193
F36.15282677
aF-86.79693031
assg69
I00
sg70
Nsg71
(lp194
g1
(g73
g3
Ntp195
Rp196
(dp197
g8
Nsg77
Nsg78
Nsg79
Nsg80
Nsg81
Nsg50
Nsg82
Nsg83
Nsg84
Nsg85
Nsg86
Nsg87
Nsg88
Nsg89
Nsg90
Nsg91
Nsg92
Nsg93
Nsg94
Nsg95
Nsg96
VChuckChase1
p198
sg98
Nsg99
VChuck Chase
p199
sg101
Nsg102
Nsg103
I436301115
sg104
Nsbag1
(g73
g3
Ntp200
Rp201
(dp202
g8
Nsg77
Nsg78
Nsg79
Nsg80
Nsg81
Nsg50
Nsg82
Nsg83
Nsg84
Nsg85
Nsg86
Nsg87
Nsg88
Nsg89
Nsg90
Nsg91
Nsg92
Nsg93
Nsg94
Nsg95
Nsg96
VGerry_Chase_
p203
sg98
Nsg99
VGerry Chase
p204
sg101
Nsg102
Nsg103
I2248630405
sg104
Nsbasg110
I0
sg111
I579844964802117632
sg112
V\u201c@ChuckChase1: @Gerry_Chase_ not in any rush, just thinking about it.\u201dgood thoughts need to ride out the storm a little longer
p205
sg114
I00
sg115
Ven
p206
sg117
g1
(g73
g3
Ntp207
Rp208
(dp209
g8
VBuffalo, Wyoming
p210
sg77
V333333
p211
sg78
Ven
p212
sg79
VArizona
p213
sg80
I189
sg81
I493
sg50
VMon Dec 16 11:41:58 +0000 2013
p214
sg82
I00
sg83
VLead Learner. Superintendent of schools @ JCSD#1 and previously a school principal, music educator, and student - still a student.
p215
sg84
Vhttps://pbs.twimg.com/profile_images/489534843483471872/6HnAHlw1_normal.jpeg
p216
sg85
I315
sg86
I365
sg87
I-25200
sg88
Nsg89
I00
sg90
I00
sg91
I00
sg92
V0084B4
p217
sg93
I01
sg94
I00
sg95
Vhttp://abs.twimg.com/images/themes/theme1/bg.png
p218
sg96
VGerry_Chase_
p219
sg98
I10
sg99
VGerry Chase
p220
sg101
VDDEEF6
p221
sg102
Nsg103
I2248630405
sg104
VC0DEED
p222
sbsg134
Nsg135
Nsg136
(lp223
sg103
I579845411277520896
sbag1
(g2
g3
Ntp224
Rp225
(dp226
g7
I0
sg8
Nsg9
Nsg10
I1436379602
sg11
I00
sg12
Nsg13
V<a href="http://twitter.com/download/android" rel="nofollow">Twitter for Android</a>
p227
sg15
(lp228
sg17
(dp229
Vfull_name
p230
VNashville, TN
p231
sVurl
p232
Vhttps://api.twitter.com/1.1/geo/id/00ab941b685334e3.json
p233
sVcountry
p234
VUnited States
p235
sVplace_type
p236
Vcity
p237
sVbounding_box
p238
(dp239
Vtype
p240
VPolygon
p241
sVcoordinates
p242
(lp243
(lp244
(lp245
F-87.022482
aF35.99451
aa(lp246
F-86.560616
aF35.99451
aa(lp247
F-86.560616
aF36.405448
aa(lp248
F-87.022482
aF36.405448
aaassVcontained_within
p249
(lp250
sVcountry_code
p251
VUS
p252
sVattributes
p253
(dp254
sVid
p255
V00ab941b685334e3
p256
sVname
p257
VNashville
p258
ssg48
Nsg49
Nsg50
VSun Mar 22 21:24:16 +0000 2015
p259
sg52
Nsg53
Nsg54
VLisanumber8
p260
sg55
(dp261
Vtype
p262
VPoint
p263
sVcoordinates
p264
(lp265
F-86.6180781
aF36.2009842
assg61
(lp266
sg63
(dp267
Vtype
p268
VPoint
p269
sVcoordinates
p270
(lp271
F36.2009842
aF-86.6180781
assg69
I00
sg70
Nsg71
(lp272
g1
(g73
g3
Ntp273
Rp274
(dp275
g8
Nsg77
Nsg78
Nsg79
Nsg80
Nsg81
Nsg50
Nsg82
Nsg83
Nsg84
Nsg85
Nsg86
Nsg87
Nsg88
Nsg89
Nsg90
Nsg91
Nsg92
Nsg93
Nsg94
Nsg95
Nsg96
VLisanumber8
p276
sg98
Nsg99
VLisa Lind
p277
sg101
Nsg102
Nsg103
I1436379602
sg104
Nsbasg110
I0
sg111
I579754182804127744
sg112
V@Lisanumber8 struggling after missing work due to the ice storm we had but always blessed
p278
sg114
I00
sg115
Ven
p279
sg117
g1
(g73
g3
Ntp280
Rp281
(dp282
g8
VHermitage, TN
p283
sg77
V333333
p284
sg78
Ven
p285
sg79
VCentral Time (US & Canada)
p286
sg80
I121
sg81
I2985
sg50
VFri May 31 16:55:05 +0000 2013
p287
sg82
I00
sg83
VStill homeless with my son and my baby Faith. She's our dog. Just making our way through this world trying to do what Jesus would do.
p288
sg84
Vhttps://pbs.twimg.com/profile_images/500810445029392387/O1vGGs8v_normal.jpeg
p289
sg85
I201
sg86
I94
sg87
I-18000
sg88
Nsg89
I00
sg90
I00
sg91
I00
sg92
V0084B4
p290
sg93
I01
sg94
I00
sg95
Vhttp://abs.twimg.com/images/themes/theme1/bg.png
p291
sg96
Vvbatcher50
p292
sg98
I4
sg99
VVicky Batcher
p293
sg101
VDDEEF6
p294
sg102
Nsg103
I1472580348
sg104
VC0DEED
p295
sbsg134
Nsg135
Nsg136
(lp296
sg103
I579755497768681473
sbag1
(g2
g3
Ntp297
Rp298
(dp299
g7
I3
sg8
Nsg9
Nsg10
Nsg11
I00
sg12
Nsg13
V<a href="http://twitter.com/download/android" rel="nofollow">Twitter for Android</a>
p300
sg15
(lp301
sg17
(dp302
Vfull_name
p303
VNashville, TN
p304
sVurl
p305
Vhttps://api.twitter.com/1.1/geo/id/00ab941b685334e3.json
p306
sVcountry
p307
VUnited States
p308
sVplace_type
p309
Vcity
p310
sVbounding_box
p311
(dp312
Vtype
p313
VPolygon
p314
sVcoordinates
p315
(lp316
(lp317
(lp318
F-87.022482
aF35.99451
aa(lp319
F-86.560616
aF35.99451
aa(lp320
F-86.560616
aF36.405448
aa(lp321
F-87.022482
aF36.405448
aaassVcontained_within
p322
(lp323
sVcountry_code
p324
VUS
p325
sVattributes
p326
(dp327
sVid
p328
V00ab941b685334e3
p329
sVname
p330
VNashville
p331
ssg48
Nsg49
Nsg50
VSun Mar 22 18:46:07 +0000 2015
p332
sg52
Nsg53
Nsg54
Nsg55
(dp333
Vtype
p334
VPoint
p335
sVcoordinates
p336
(lp337
F-86.7250644
aF36.0583304
assg61
(lp338
sg63
(dp339
Vtype
p340
VPoint
p341
sVcoordinates
p342
(lp343
F36.0583304
aF-86.7250644
assg69
I00
sg70
Nsg71
(lp344
g1
(g73
g3
Ntp345
Rp346
(dp347
g8
Nsg77
Nsg78
Nsg79
Nsg80
Nsg81
Nsg50
Nsg82
Nsg83
Nsg84
Nsg85
Nsg86
Nsg87
Nsg88
Nsg89
Nsg90
Nsg91
Nsg92
Nsg93
Nsg94
Nsg95
Nsg96
VBPA_Baseball
p348
sg98
Nsg99
VBPA Baseball
p349
sg101
Nsg102
Nsg103
I1415933940
sg104
Nsbasg110
I2
sg111
Nsg112
VB-Hawks defeat SWA Storm 2-0 to advance to Ship in the @BPA_Baseball Spring Slam.   Sunderman and Krekeler combine to pitch 2 hit shutout.
p350
sg114
I00
sg115
Ven
p351
sg117
g1
(g73
g3
Ntp352
Rp353
(dp354
g8
VCincinnati, OH
p355
sg77
V333333
p356
sg78
Ven
p357
sg79
VEastern Time (US & Canada)
p358
sg80
I264
sg81
I1106
sg50
VThu Jun 27 14:39:44 +0000 2013
p359
sg82
I00
sg83
VMidland Blackhawks 9u  #UA #Marucci\u000a2014 PG Super 25 National      Champions!
p360
sg84
Vhttps://pbs.twimg.com/profile_images/378800000119123714/79e4e16306c84f5dfd6cdbc1dcd552a4_normal.jpeg
p361
sg85
I602
sg86
I81
sg87
I-14400
sg88
Nsg89
I00
sg90
I00
sg91
I01
sg92
V0084B4
p362
sg93
I01
sg94
I00
sg95
Vhttp://pbs.twimg.com/profile_background_images/479706256261644288/PKaHUxYE.jpeg
p363
sg96
VMidlandBHawks
p364
sg98
I0
sg99
VMidland Blackhawks 
p365
sg101
VDDEEF6
p366
sg102
Vhttp://t.co/eWFWsD8l5d
p367
sg103
I1550779928
sg104
VC0DEED
p368
sbsg134
Nsg135
Nsg136
(lp369
sg103
I579715698122985474
sbag1
(g2
g3
Ntp370
Rp371
(dp372
g7
I0
sg8
Nsg9
Nsg10
Nsg11
I00
sg12
Nsg13
V<a href="http://twitter.com/download/android" rel="nofollow">Twitter for Android</a>
p373
sg15
(lp374
sg17
(dp375
Vfull_name
p376
VNashville, TN
p377
sVurl
p378
Vhttps://api.twitter.com/1.1/geo/id/00ab941b685334e3.json
p379
sVcountry
p380
VUnited States
p381
sVplace_type
p382
Vcity
p383
sVbounding_box
p384
(dp385
Vtype
p386
VPolygon
p387
sVcoordinates
p388
(lp389
(lp390
(lp391
F-87.022482
aF35.99451
aa(lp392
F-86.560616
aF35.99451
aa(lp393
F-86.560616
aF36.405448
aa(lp394
F-87.022482
aF36.405448
aaassVcontained_within
p395
(lp396
sVcountry_code
p397
VUS
p398
sVattributes
p399
(dp400
sVid
p401
V00ab941b685334e3
p402
sVname
p403
VNashville
p404
ssg48
Nsg49
Nsg50
VSat Mar 21 20:49:55 +0000 2015
p405
sg52
Nsg53
Nsg54
Nsg55
(dp406
Vtype
p407
VPoint
p408
sVcoordinates
p409
(lp410
F-86.7824671
aF36.1670714
assg61
(lp411
sg63
(dp412
Vtype
p413
VPoint
p414
sVcoordinates
p415
(lp416
F36.1670714
aF-86.7824671
assg69
I00
sg70
Nsg71
(lp417
sg110
I0
sg111
Nsg112
VGreat job Red Storm.
p418
sg114
I00
sg115
Ven
p419
sg117
g1
(g73
g3
Ntp420
Rp421
(dp422
g8
VMurfreesboro TN
p423
sg77
V333333
p424
sg78
Ven
p425
sg79
Nsg80
I28
sg81
I125
sg50
VSun Nov 10 00:12:31 +0000 2013
p426
sg82
I00
sg83
VSome people wait a lifetime to meet their favorite athletes, I am raising mine.  Brent, Austin, and Brooke Higgins I am and always will be their biggest fan.
p427
sg84
Vhttps://pbs.twimg.com/profile_images/501515182188036097/wb8_258b_normal.jpeg
p428
sg85
I85
sg86
I23
sg87
Nsg88
Nsg89
I00
sg90
I00
sg91
I00
sg92
V0084B4
p429
sg93
I01
sg94
I00
sg95
Vhttp://abs.twimg.com/images/themes/theme1/bg.png
p430
sg96
Vbabdad74
p431
sg98
I0
sg99
VScott Allen
p432
sg101
VDDEEF6
p433
sg102
Nsg103
I2185270146
sg104
VC0DEED
p434
sbsg134
Nsg135
Nsg136
(lp435
sg103
I579384464415043584
sbag1
(g2
g3
Ntp436
Rp437
(dp438
g7
I1
sg8
Nsg9
Nsg10
Nsg11
I00
sg12
Nsg13
V<a href="http://twitter.com/download/android" rel="nofollow">Twitter for Android</a>
p439
sg15
(lp440
(dp441
Vexpanded_url
p442
Vhttp://twitter.com/babdad74/status/579361346631913472/photo/1
p443
sVdisplay_url
p444
Vpic.twitter.com/bMwhmKxKCx
p445
sVurl
p446
Vhttp://t.co/bMwhmKxKCx
p447
sVmedia_url_https
p448
Vhttps://pbs.twimg.com/media/CApOApxXEAAKWyy.jpg
p449
sVid_str
p450
V579361275190382592
p451
sVsizes
p452
(dp453
Vsmall
p454
(dp455
Vh
p456
I191
sVresize
p457
Vfit
p458
sVw
p459
I340
ssVlarge
p460
(dp461
Vh
p462
I576
sVresize
p463
Vfit
p464
sVw
p465
I1024
ssVmedium
p466
(dp467
Vh
p468
I337
sVresize
p469
Vfit
p470
sVw
p471
I600
ssVthumb
p472
(dp473
Vh
p474
I150
sVresize
p475
Vcrop
p476
sVw
p477
I150
sssVindices
p478
(lp479
I37
aI59
asVtype
p480
Vphoto
p481
sVid
p482
I579361275190382592
sVmedia_url
p483
Vhttp://pbs.twimg.com/media/CApOApxXEAAKWyy.jpg
p484
sasg17
(dp485
Vfull_name
p486
VNashville, TN
p487
sVurl
p488
Vhttps://api.twitter.com/1.1/geo/id/00ab941b685334e3.json
p489
sVcountry
p490
VUnited States
p491
sVplace_type
p492
Vcity
p493
sVbounding_box
p494
(dp495
Vtype
p496
VPolygon
p497
sVcoordinates
p498
(lp499
(lp500
(lp501
F-87.022482
aF35.99451
aa(lp502
F-86.560616
aF35.99451
aa(lp503
F-86.560616
aF36.405448
aa(lp504
F-87.022482
aF36.405448
aaassVcontained_within
p505
(lp506
sVcountry_code
p507
VUS
p508
sVattributes
p509
(dp510
sVid
p511
V00ab941b685334e3
p512
sVname
p513
VNashville
p514
ssg48
Nsg49
Nsg50
VSat Mar 21 19:18:03 +0000 2015
p515
sg52
Nsg53
I00
sg54
Nsg55
(dp516
Vtype
p517
VPoint
p518
sVcoordinates
p519
(lp520
F-86.7811663
aF36.1673592
assg61
(lp521
g1
(ctwitter
Hashtag
p522
g3
Ntp523
Rp524
(dp525
S'text'
p526
Vmardigrasnationals
p527
sbasg63
(dp528
Vtype
p529
VPoint
p530
sVcoordinates
p531
(lp532
F36.1673592
aF-86.7811663
assg69
I00
sg70
Nsg71
(lp533
sg110
I0
sg111
Nsg112
VRed Storm at the #mardigrasnationals http://t.co/bMwhmKxKCx
p534
sg114
I00
sg115
Ven
p535
sg117
g1
(g73
g3
Ntp536
Rp537
(dp538
g8
VMurfreesboro TN
p539
sg77
V333333
p540
sg78
Ven
p541
sg79
Nsg80
I28
sg81
I125
sg50
VSun Nov 10 00:12:31 +0000 2013
p542
sg82
I00
sg83
VSome people wait a lifetime to meet their favorite athletes, I am raising mine.  Brent, Austin, and Brooke Higgins I am and always will be their biggest fan.
p543
sg84
Vhttps://pbs.twimg.com/profile_images/501515182188036097/wb8_258b_normal.jpeg
p544
sg85
I85
sg86
I23
sg87
Nsg88
Nsg89
I00
sg90
I00
sg91
I00
sg92
V0084B4
p545
sg93
I01
sg94
I00
sg95
Vhttp://abs.twimg.com/images/themes/theme1/bg.png
p546
sg96
Vbabdad74
p547
sg98
I0
sg99
VScott Allen
p548
sg101
VDDEEF6
p549
sg102
Nsg103
I2185270146
sg104
VC0DEED
p550
sbsg134
Nsg135
Nsg136
(lp551
sg103
I579361346631913472
sbag1
(g2
g3
Ntp552
Rp553
(dp554
g7
I2
sg8
Nsg9
Nsg10
Nsg11
I00
sg12
Nsg13
V<a href="http://instagram.com" rel="nofollow">Instagram</a>
p555
sg15
(lp556
sg17
(dp557
Vfull_name
p558
VNashville, TN
p559
sVurl
p560
Vhttps://api.twitter.com/1.1/geo/id/00ab941b685334e3.json
p561
sVcountry
p562
VUnited States
p563
sVplace_type
p564
Vcity
p565
sVbounding_box
p566
(dp567
Vtype
p568
VPolygon
p569
sVcoordinates
p570
(lp571
(lp572
(lp573
F-87.022482
aF35.99451
aa(lp574
F-86.560616
aF35.99451
aa(lp575
F-86.560616
aF36.405448
aa(lp576
F-87.022482
aF36.405448
aaassVcontained_within
p577
(lp578
sVcountry_code
p579
VUS
p580
sVattributes
p581
(dp582
sVid
p583
V00ab941b685334e3
p584
sVname
p585
VNashville
p586
ssg48
Nsg49
Nsg50
VFri Mar 20 22:23:45 +0000 2015
p587
sg52
Nsg53
I00
sg54
Nsg55
(dp588
Vtype
p589
VPoint
p590
sVcoordinates
p591
(lp592
F-86.83488373
aF36.1037995
assg61
(lp593
g1
(g522
g3
Ntp594
Rp595
(dp596
g526
VThe
p597
sbasg63
(dp598
Vtype
p599
VPoint
p600
sVcoordinates
p601
(lp602
F36.1037995
aF-86.83488373
assg69
I00
sg70
Nsg71
(lp603
sg110
I0
sg111
Nsg112
VWe've entered #The Hatch.\u000a\u000aSo far, we're going with an old cellar/storm shelter. After wading\u2026 https://t.co/66Fzu8EpTO
p604
sg114
I00
sg115
Ven
p605
sg117
g1
(g73
g3
Ntp606
Rp607
(dp608
g8
VNashville, Tn
p609
sg77
V333333
p610
sg78
Ven
p611
sg79
VCentral Time (US & Canada)
p612
sg80
I912
sg81
I7035
sg50
VWed May 20 19:51:47 +0000 2009
p613
sg82
I00
sg83
VMeteorology Student and Research Assistant at the University of Oklahoma. Callsign KJ4ZZR. I code in Python. More about me: http://t.co/ALlxepVt4j
p614
sg84
Vhttps://pbs.twimg.com/profile_images/501939355108536320/BP5hcnHA_normal.jpeg
p615
sg85
I284
sg86
I3175
sg87
I-18000
sg88
Nsg89
I00
sg90
I00
sg91
I00
sg92
V0084B4
p616
sg93
I01
sg94
I00
sg95
Vhttp://pbs.twimg.com/profile_background_images/455839846188072960/lpFsokrW.jpeg
p617
sg96
Vtempestchasing
p618
sg98
I67
sg99
VKelton Halbert
p619
sg101
VDDEEF6
p620
sg102
Vhttp://t.co/lcll46LPKZ
p621
sg103
I41434285
sg104
VC0DEED
p622
sbsg134
Nsg135
Nsg136
(lp623
g1
(g138
g3
Ntp624
Rp625
(dp626
g142
Vhttps://t.co/66Fzu8EpTO
p627
sg144
Vhttps://instagram.com/p/0d1W9uNaW0/
p628
sbasg103
I579045692112572416
sbag1
(g2
g3
Ntp629
Rp630
(dp631
g7
I0
sg8
Nsg9
Nsg10
Nsg11
I00
sg12
Nsg13
V<a href="http://twitter.com/download/iphone" rel="nofollow">Twitter for iPhone</a>
p632
sg15
(lp633
sg17
(dp634
Vfull_name
p635
VFranklin, TN
p636
sVurl
p637
Vhttps://api.twitter.com/1.1/geo/id/cc631a80adacd459.json
p638
sVcountry
p639
VUnited States
p640
sVplace_type
p641
Vcity
p642
sVbounding_box
p643
(dp644
Vtype
p645
VPolygon
p646
sVcoordinates
p647
(lp648
(lp649
(lp650
F-86.935419
aF35.85036
aa(lp651
F-86.766934
aF35.85036
aa(lp652
F-86.766934
aF36.019674
aa(lp653
F-86.935419
aF36.019674
aaassVcontained_within
p654
(lp655
sVcountry_code
p656
VUS
p657
sVattributes
p658
(dp659
sVid
p660
Vcc631a80adacd459
p661
sVname
p662
VFranklin
p663
ssg48
Nsg49
Nsg50
VFri Mar 20 02:48:08 +0000 2015
p664
sg52
Nsg53
Nsg54
Nsg55
(dp665
Vtype
p666
VPoint
p667
sVcoordinates
p668
(lp669
F-86.87876776
aF35.93217118
assg61
(lp670
sg63
(dp671
Vtype
p672
VPoint
p673
sVcoordinates
p674
(lp675
F35.93217118
aF-86.87876776
assg69
I00
sg70
Nsg71
(lp676
sg110
I0
sg111
Nsg112
V"Fat Storm Trooper" is a pretty cool band name.
p677
sg114
I00
sg115
Ven
p678
sg117
g1
(g73
g3
Ntp679
Rp680
(dp681
g8
VNashville
p682
sg77
V333333
p683
sg78
Ven
p684
sg79
VEastern Time (US & Canada)
p685
sg80
I601
sg81
I10578
sg50
VSun Jun 21 18:07:08 +0000 2009
p686
sg82
I00
sg83
VMusic maker. Dreamer of the dreams. Writer. Lover AND a Fighter. I sing in a band called @AmongTheThirsty
p687
sg84
Vhttps://pbs.twimg.com/profile_images/577994952719745024/Ucnl6ZQg_normal.jpeg
p688
sg85
I348
sg86
I2871
sg87
I-14400
sg88
Nsg89
I00
sg90
I00
sg91
I00
sg92
V462FED
p689
sg93
I01
sg94
I00
sg95
Vhttp://pbs.twimg.com/profile_background_images/522344358/ryan.jpg
p690
sg96
VRyanDanielATT
p691
sg98
I16
sg99
VRyan Daniel
p692
sg101
VDDEEF6
p693
sg102
Nsg103
I49380779
sg104
V1A1B1F
p694
sbsg134
Nsg135
Nsg136
(lp695
sg103
I578749836553506816
sbag1
(g2
g3
Ntp696
Rp697
(dp698
g7
I0
sg8
Nsg9
Nsg10
I329932631
sg11
I00
sg12
Nsg13
V<a href="http://twitter.com/download/iphone" rel="nofollow">Twitter for iPhone</a>
p699
sg15
(lp700
sg17
(dp701
Vfull_name
p702
VLebanon, TN
p703
sVurl
p704
Vhttps://api.twitter.com/1.1/geo/id/cae48909a1a015a5.json
p705
sVcountry
p706
VUnited States
p707
sVplace_type
p708
Vcity
p709
sVbounding_box
p710
(dp711
Vtype
p712
VPolygon
p713
sVcoordinates
p714
(lp715
(lp716
(lp717
F-86.40544
aF36.138726
aa(lp718
F-86.237547
aF36.138726
aa(lp719
F-86.237547
aF36.276356
aa(lp720
F-86.40544
aF36.276356
aaassVcontained_within
p721
(lp722
sVcountry_code
p723
VUS
p724
sVattributes
p725
(dp726
sVid
p727
Vcae48909a1a015a5
p728
sVname
p729
VLebanon
p730
ssg48
Nsg49
Nsg50
VFri Mar 20 00:45:23 +0000 2015
p731
sg52
Nsg53
Nsg54
VCarson_Case
p732
sg55
(dp733
Vtype
p734
VPoint
p735
sVcoordinates
p736
(lp737
F-86.30424455
aF36.23112091
assg61
(lp738
sg63
(dp739
Vtype
p740
VPoint
p741
sVcoordinates
p742
(lp743
F36.23112091
aF-86.30424455
assg69
I00
sg70
Nsg71
(lp744
g1
(g73
g3
Ntp745
Rp746
(dp747
g8
Nsg77
Nsg78
Nsg79
Nsg80
Nsg81
Nsg50
Nsg82
Nsg83
Nsg84
Nsg85
Nsg86
Nsg87
Nsg88
Nsg89
Nsg90
Nsg91
Nsg92
Nsg93
Nsg94
Nsg95
Nsg96
VCarson_Case
p748
sg98
Nsg99
VCarson Case
p749
sg101
Nsg102
Nsg103
I329932631
sg104
Nsbasg110
I0
sg111
I578713127086325760
sg112
V\u201c@Carson_Case: You're my anchor forever, my shelter within the storm.\u201d\U0001f64c
p750
sg114
I00
sg115
Ven
p751
sg117
g1
(g73
g3
Ntp752
Rp753
(dp754
g8
V
p755
sg77
V333333
p756
sg78
Ven
p757
sg79
Nsg80
I313
sg81
I3614
sg50
VTue Oct 09 23:08:00 +0000 2012
p758
sg82
I00
sg83
VNothing worth having comes easy.
p759
sg84
Vhttps://pbs.twimg.com/profile_images/578028252754644992/o40xU-Qc_normal.jpeg
p760
sg85
I282
sg86
I923
sg87
Nsg88
Nsg89
I00
sg90
I00
sg91
I00
sg92
V0084B4
p761
sg93
I01
sg94
I00
sg95
Vhttp://abs.twimg.com/images/themes/theme1/bg.png
p762
sg96
Vsarstrickland
p763
sg98
I0
sg99
VS\u03b1\u044f\u03b1\u043d
p764
sg101
VDDEEF6
p765
sg102
Nsg103
I870745238
sg104
VC0DEED
p766
sbsg134
Nsg135
Nsg136
(lp767
sg103
I578718946800627712
sbag1
(g2
g3
Ntp768
Rp769
(dp770
g7
I0
sg8
Nsg9
Nsg10
Nsg11
I00
sg12
Nsg13
V<a href="http://twitter.com/download/android" rel="nofollow">Twitter for Android</a>
p771
sg15
(lp772
sg17
(dp773
Vfull_name
p774
VGallatin, TN
p775
sVurl
p776
Vhttps://api.twitter.com/1.1/geo/id/e08aaac2b23fd3a3.json
p777
sVcountry
p778
VUnited States
p779
sVplace_type
p780
Vcity
p781
sVbounding_box
p782
(dp783
Vtype
p784
VPolygon
p785
sVcoordinates
p786
(lp787
(lp788
(lp789
F-86.550888
aF36.3161629
aa(lp790
F-86.3787946
aF36.3161629
aa(lp791
F-86.3787946
aF36.428963
aa(lp792
F-86.550888
aF36.428963
aaassVcontained_within
p793
(lp794
sVcountry_code
p795
VUS
p796
sVattributes
p797
(dp798
sVid
p799
Ve08aaac2b23fd3a3
p800
sVname
p801
VGallatin
p802
ssg48
Nsg49
Nsg50
VWed Mar 18 06:44:03 +0000 2015
p803
sg52
Nsg53
Nsg54
Nsg55
(dp804
Vtype
p805
VPoint
p806
sVcoordinates
p807
(lp808
F-86.4546955
aF36.3954773
assg61
(lp809
sg63
(dp810
Vtype
p811
VPoint
p812
sVcoordinates
p813
(lp814
F36.3954773
aF-86.4546955
assg69
I00
sg70
Nsg71
(lp815
sg110
I0
sg111
Nsg112
VFEEL LIKE ITS FINNA BE A STORM\U0001f611
p816
sg114
I00
sg115
Ven
p817
sg117
g1
(g73
g3
Ntp818
Rp819
(dp820
g8
g755
sg77
V333333
p821
sg78
Ven
p822
sg79
Nsg80
I799
sg81
I12352
sg50
VSun Nov 18 04:49:45 +0000 2012
p823
sg82
I00
sg83
VKEEP THE CIRCLE SMALL \u2b55\ufe0f!!! DONT TRUST TOO MANY PEOPLE!! BEHIND EVERY HUSTLER THERE IS A HUSTLING ASS FEMALE
p824
sg84
Vhttps://pbs.twimg.com/profile_images/578282024277954560/Y3-6eUqU_normal.jpeg
p825
sg85
I1171
sg86
I953
sg87
Nsg88
Nsg89
I00
sg90
I00
sg91
I00
sg92
V0084B4
p826
sg93
I01
sg94
I00
sg95
Vhttp://abs.twimg.com/images/themes/theme1/bg.png
p827
sg96
VSavage_ass_dude
p828
sg98
I0
sg99
VGERVONTA
p829
sg101
VDDEEF6
p830
sg102
Nsg103
I954859561
sg104
VC0DEED
p831
sbsg134
Nsg135
Nsg136
(lp832
sg103
I578084430410985472
sbag1
(g2
g3
Ntp833
Rp834
(dp835
g7
I0
sg8
Nsg9
Nsg10
Nsg11
I00
sg12
Nsg13
V<a href="http://twitter.com/download/android" rel="nofollow">Twitter for Android</a>
p836
sg15
(lp837
sg17
(dp838
Vfull_name
p839
VClarksville, TN
p840
sVurl
p841
Vhttps://api.twitter.com/1.1/geo/id/52f4a98d03e4ea4f.json
p842
sVcountry
p843
VUnited States
p844
sVplace_type
p845
Vcity
p846
sVbounding_box
p847
(dp848
Vtype
p849
VPolygon
p850
sVcoordinates
p851
(lp852
(lp853
(lp854
F-87.486546
aF36.4602
aa(lp855
F-87.157791
aF36.4602
aa(lp856
F-87.157791
aF36.641767
aa(lp857
F-87.486546
aF36.641767
aaassVcontained_within
p858
(lp859
sVcountry_code
p860
VUS
p861
sVattributes
p862
(dp863
sVid
p864
V52f4a98d03e4ea4f
p865
sVname
p866
VClarksville
p867
ssg48
Nsg49
Nsg50
VWed Mar 18 00:48:19 +0000 2015
p868
sg52
Nsg53
Nsg54
Nsg55
(dp869
Vtype
p870
VPoint
p871
sVcoordinates
p872
(lp873
F-87.2893944
aF36.6362276
assg61
(lp874
sg63
(dp875
Vtype
p876
VPoint
p877
sVcoordinates
p878
(lp879
F36.6362276
aF-87.2893944
assg69
I00
sg70
Nsg71
(lp880
sg110
I0
sg111
Nsg112
VCalm after the storm.
p881
sg114
I00
sg115
Ven
p882
sg117
g1
(g73
g3
Ntp883
Rp884
(dp885
g8
g755
sg77
V000000
p886
sg78
Ven
p887
sg79
VMountain Time (US & Canada)
p888
sg80
I596
sg81
I26331
sg50
VFri Jan 30 22:40:41 +0000 2009
p889
sg82
I00
sg83
VLongLiveThugga  3.09.15
p890
sg84
Vhttps://pbs.twimg.com/profile_images/580115835802505216/3TPhworJ_normal.jpg
p891
sg85
I208
sg86
I625
sg87
I-21600
sg88
Nsg89
I00
sg90
I00
sg91
I01
sg92
VFF0088
p892
sg93
I01
sg94
I00
sg95
Vhttp://pbs.twimg.com/profile_background_images/836653173/06e269c0ec7b4b080c997d2db0831966.png
p893
sg96
VRatedGoldiee_
p894
sg98
I0
sg99
Vunknown.
p895
sg101
VA535AB
p896
sg102
Nsg103
I19793183
sg104
V000000
p897
sbsg134
Nsg135
Nsg136
(lp898
sg103
I577994909212389376
sbag1
(g2
g3
Ntp899
Rp900
(dp901
g7
I0
sg8
Nsg9
Nsg10
Nsg11
I00
sg12
Nsg13
V<a href="http://twitter.com/download/iphone" rel="nofollow">Twitter for iPhone</a>
p902
sg15
(lp903
sg17
(dp904
Vfull_name
p905
VSmyrna, TN
p906
sVurl
p907
Vhttps://api.twitter.com/1.1/geo/id/f9eb63ab4f7dd5db.json
p908
sVcountry
p909
VUnited States
p910
sVplace_type
p911
Vcity
p912
sVbounding_box
p913
(dp914
Vtype
p915
VPolygon
p916
sVcoordinates
p917
(lp918
(lp919
(lp920
F-86.624429
aF35.879451
aa(lp921
F-86.458783
aF35.879451
aa(lp922
F-86.458783
aF36.029213
aa(lp923
F-86.624429
aF36.029213
aaassVcontained_within
p924
(lp925
sVcountry_code
p926
VUS
p927
sVattributes
p928
(dp929
sVid
p930
Vf9eb63ab4f7dd5db
p931
sVname
p932
VSmyrna
p933
ssg48
Nsg49
Nsg50
VTue Mar 17 23:57:07 +0000 2015
p934
sg52
Nsg53
Nsg54
Nsg55
(dp935
Vtype
p936
VPoint
p937
sVcoordinates
p938
(lp939
F-86.52587288
aF35.99587842
assg61
(lp940
g1
(g522
g3
Ntp941
Rp942
(dp943
g526
Vsmyrna
p944
sbag1
(g522
g3
Ntp945
Rp946
(dp947
g526
Vtn
p948
sbag1
(g522
g3
Ntp949
Rp950
(dp951
g526
Vtennessee
p952
sbag1
(g522
g3
Ntp953
Rp954
(dp955
g526
Vnwsnashville
p956
sbasg63
(dp957
Vtype
p958
VPoint
p959
sVcoordinates
p960
(lp961
F35.99587842
aF-86.52587288
assg69
I00
sg70
Nsg71
(lp962
g1
(g73
g3
Ntp963
Rp964
(dp965
g8
Nsg77
Nsg78
Nsg79
Nsg80
Nsg81
Nsg50
Nsg82
Nsg83
Nsg84
Nsg85
Nsg86
Nsg87
Nsg88
Nsg89
Nsg90
Nsg91
Nsg92
Nsg93
Nsg94
Nsg95
Nsg96
VJimCantore
p966
sg98
Nsg99
VJim Cantore
p967
sg101
Nsg102
Nsg103
I21388284
sg104
Nsbasg110
I0
sg111
Nsg112
VSitting in a Storm Spotter certification in #smyrna #tn to prep for storm season &amp;  @JimCantore #tennessee #nwsnashville
p968
sg114
I00
sg115
Ven
p969
sg117
g1
(g73
g3
Ntp970
Rp971
(dp972
g8
VMiddle Tennessee
p973
sg77
V333333
p974
sg78
Ven
p975
sg79
VCentral Time (US & Canada)
p976
sg80
I498
sg81
I1652
sg50
VThu Apr 16 00:39:08 +0000 2009
p977
sg82
I00
sg83
VA Top Producing Realtor in Middle Tennessee who loves family time and fine photography.
p978
sg84
Vhttps://pbs.twimg.com/profile_images/2991840724/a271df9d8016b1473b286e62162b63c8_normal.jpeg
p979
sg85
I365
sg86
I3
sg87
I-18000
sg88
Nsg89
I00
sg90
I00
sg91
I00
sg92
V009999
p980
sg93
I01
sg94
I00
sg95
Vhttp://abs.twimg.com/images/themes/theme14/bg.gif
p981
sg96
Vjustinholder1
p982
sg98
I7
sg99
VJustin Holder
p983
sg101
VEFEFEF
p984
sg102
Vhttp://t.co/6s71KX5bk3
p985
sg103
I31577236
sg104
V131516
p986
sbsg134
Nsg135
Nsg136
(lp987
sg103
I577982022020435968
sbag1
(g2
g3
Ntp988
Rp989
(dp990
g7
I0
sg8
Nsg9
Nsg10
Nsg11
I00
sg12
Nsg13
V<a href="http://instagram.com" rel="nofollow">Instagram</a>
p991
sg15
(lp992
sg17
(dp993
Vfull_name
p994
VMount Juliet, TN
p995
sVurl
p996
Vhttps://api.twitter.com/1.1/geo/id/165269430f88d842.json
p997
sVcountry
p998
VUnited States
p999
sVplace_type
p1000
Vcity
p1001
sVbounding_box
p1002
(dp1003
Vtype
p1004
VPolygon
p1005
sVcoordinates
p1006
(lp1007
(lp1008
(lp1009
F-86.583643
aF36.12784
aa(lp1010
F-86.456775
aF36.12784
aa(lp1011
F-86.456775
aF36.315578
aa(lp1012
F-86.583643
aF36.315578
aaassVcontained_within
p1013
(lp1014
sVcountry_code
p1015
VUS
p1016
sVattributes
p1017
(dp1018
sVid
p1019
V165269430f88d842
p1020
sVname
p1021
VMount Juliet
p1022
ssg48
Nsg49
Nsg50
VTue Mar 17 20:22:35 +0000 2015
p1023
sg52
Nsg53
I00
sg54
Nsg55
(dp1024
Vtype
p1025
VPoint
p1026
sVcoordinates
p1027
(lp1028
F-86.55795095
aF36.1682056
assg61
(lp1029
g1
(g522
g3
Ntp1030
Rp1031
(dp1032
g526
Vtbt
p1033
sbag1
(g522
g3
Ntp1034
Rp1035
(dp1036
g526
Vsnowstorm
p1037
sbasg63
(dp1038
Vtype
p1039
VPoint
p1040
sVcoordinates
p1041
(lp1042
F36.1682056
aF-86.55795095
assg69
I00
sg70
Nsg71
(lp1043
sg110
I0
sg111
Nsg112
VAnd this was I40 right by the house! #tbt #snowstorm I do believe the first snow/ice storm depleted\u2026 https://t.co/e9ds2XyVFN
p1044
sg114
I00
sg115
Ven
p1045
sg117
g1
(g73
g3
Ntp1046
Rp1047
(dp1048
g8
VNashville, TN Music City
p1049
sg77
V333333
p1050
sg78
Ven
p1051
sg79
VEastern Time (US & Canada)
p1052
sg80
I32
sg81
I2605
sg50
VWed Jun 22 04:14:53 +0000 2011
p1053
sg82
I00
sg83
VDance in the rain, build a snow fort, sing your heart out in the car... Dream!
p1054
sg84
Vhttps://pbs.twimg.com/profile_images/523152735978283008/xSVZVneg_normal.jpeg
p1055
sg85
I102
sg86
I8
sg87
I-14400
sg88
Nsg89
I00
sg90
I00
sg91
I00
sg92
V0084B4
p1056
sg93
I01
sg94
I00
sg95
Vhttp://pbs.twimg.com/profile_background_images/275242173/Memories.jpg
p1057
sg96
VKrzi4MuZiK
p1058
sg98
I0
sg99
VAllie Herman
p1059
sg101
VDDEEF6
p1060
sg102
Nsg103
I321793715
sg104
VC0DEED
p1061
sbsg134
Nsg135
Nsg136
(lp1062
g1
(g138
g3
Ntp1063
Rp1064
(dp1065
g142
Vhttps://t.co/e9ds2XyVFN
p1066
sg144
Vhttps://instagram.com/p/0V5G2qj_Xx/
p1067
sbasg103
I577928034336043008
sba.